target datalayout = "e-m:e-p270:32:32-p271:32:32-p272:64:64-i64:64-i128:128-f80:128-n8:16:32:64-S128"
target triple = "x86_64-pc-linux-gnu"

%struct.engineInfo = type { ptr, ptr, ptr }
%struct.engine = type { ptr, ptr, ptr, ptr, ptr, ptr, ptr, ptr }

@engines = internal global ptr null, align 8

; Function Attrs: nounwind uwtable
define dso_local i64 @functionsMemoryVM() #1 {
  %1 = alloca ptr, align 8
  %2 = alloca ptr, align 8
  %3 = alloca i64, align 8
  %4 = alloca ptr, align 8
  %5 = alloca ptr, align 8
  call void @llvm.lifetime.start.p0(i64 8, ptr %1) #11
  %6 = load ptr, ptr @engines, align 8, !tbaa !5
  %7 = call ptr @dictGetIterator(ptr noundef %6)
  store ptr %7, ptr %1, align 8, !tbaa !44
  call void @llvm.lifetime.start.p0(i64 8, ptr %2) #11
  store ptr null, ptr %2, align 8, !tbaa !46
  call void @llvm.lifetime.start.p0(i64 8, ptr %3) #11
  store i64 0, ptr %3, align 8, !tbaa !59
  br label %8

8:                                                ; preds = %12, %0
  %9 = load ptr, ptr %1, align 8, !tbaa !44
  %10 = call ptr @dictNext(ptr noundef %9)
  store ptr %10, ptr %2, align 8, !tbaa !46
  %11 = icmp ne ptr %10, null
  br i1 %11, label %12, label %27

12:                                               ; preds = %8
  call void @llvm.lifetime.start.p0(i64 8, ptr %4) #11
  %13 = load ptr, ptr %2, align 8, !tbaa !46
  %14 = call ptr @dictGetVal(ptr noundef %13)
  store ptr %14, ptr %4, align 8, !tbaa !11
  call void @llvm.lifetime.start.p0(i64 8, ptr %5) #11
  %15 = load ptr, ptr %4, align 8, !tbaa !11
  %16 = getelementptr inbounds nuw %struct.engineInfo, ptr %15, i32 0, i32 1
  %17 = load ptr, ptr %16, align 8, !tbaa !19
  store ptr %17, ptr %5, align 8, !tbaa !35
  %18 = load ptr, ptr %5, align 8, !tbaa !35
  %19 = getelementptr inbounds nuw %struct.engine, ptr %18, i32 0, i32 3
  %20 = load ptr, ptr %19, align 8, !tbaa !162
  %21 = load ptr, ptr %5, align 8, !tbaa !35
  %22 = getelementptr inbounds nuw %struct.engine, ptr %21, i32 0, i32 0
  %23 = load ptr, ptr %22, align 8, !tbaa !22
  %24 = call i64 %20(ptr noundef %23)
  %25 = load i64, ptr %3, align 8, !tbaa !59
  %26 = add i64 %25, %24
  store i64 %26, ptr %3, align 8, !tbaa !59
  call void @llvm.lifetime.end.p0(i64 8, ptr %5) #11
  call void @llvm.lifetime.end.p0(i64 8, ptr %4) #11
  br label %8, !llvm.loop !163

27:                                               ; preds = %8
  %28 = load ptr, ptr %1, align 8, !tbaa !44
  call void @dictReleaseIterator(ptr noundef %28)
  %29 = load i64, ptr %3, align 8, !tbaa !59
  call void @llvm.lifetime.end.p0(i64 8, ptr %3) #11
  call void @llvm.lifetime.end.p0(i64 8, ptr %2) #11
  call void @llvm.lifetime.end.p0(i64 8, ptr %1) #11
  ret i64 %29
}