; Function Attrs: nounwind uwtable
define dso_local i64 @functionsMemoryVM() local_unnamed_addr #1 {
  %1 = load ptr, ptr @engines, align 8, !tbaa !42
  %2 = tail call ptr @dictGetIterator(ptr noundef %1) #12
  %3 = tail call ptr @dictNext(ptr noundef %2) #12
  %.not8 = icmp eq ptr %3, null
  br i1 %.not8, label %._crit_edge, label %.lr.ph

.lr.ph:                                           ; preds = %0, %.lr.ph
  %4 = phi ptr [ %13, %.lr.ph ], [ %3, %0 ]
  %.09 = phi i64 [ %12, %.lr.ph ], [ 0, %0 ]
  %5 = tail call ptr @dictGetVal(ptr noundef nonnull %4) #12
  %6 = getelementptr inbounds nuw i8, ptr %5, i64 8
  %7 = load ptr, ptr %6, align 8, !tbaa !14
  %8 = getelementptr inbounds nuw i8, ptr %7, i64 24
  %9 = load ptr, ptr %8, align 8, !tbaa !144
  %10 = load ptr, ptr %7, align 8, !tbaa !17
  %11 = tail call i64 %9(ptr noundef %10) #12
  %12 = add i64 %11, %.09
  %13 = tail call ptr @dictNext(ptr noundef %2) #12
  %.not = icmp eq ptr %13, null
  br i1 %.not, label %._crit_edge, label %.lr.ph, !llvm.loop !145

._crit_edge:                                      ; preds = %.lr.ph, %0
  %.0.lcssa = phi i64 [ 0, %0 ], [ %12, %.lr.ph ]
  tail call void @dictReleaseIterator(ptr noundef %2) #12
  ret i64 %.0.lcssa
}